EXPORTS
	?SetDetails@CGSPluginWrapper@@QAEXVTUid@@@Z @ 1 NONAME ; void CGSPluginWrapper::SetDetails(class TUid)
	?SelectedPlugin@CGSParentPlugin@@QAEPAVCGSPluginInterface@@XZ @ 2 NONAME ; class CGSPluginInterface * CGSParentPlugin::SelectedPlugin(void)
	?SelectedItem@CGSBaseContainer@@UAEHXZ @ 3 NONAME ; int CGSBaseContainer::SelectedItem(void)
	?SetNaviPaneL@CGSBaseView@@MAEXXZ @ 4 NONAME ; void CGSBaseView::SetNaviPaneL(void)
	?Container@CGSBaseView@@QAEPAVCGSBaseContainer@@XZ @ 5 NONAME ; class CGSBaseContainer * CGSBaseView::Container(void)
	?WatchDog@CGSBaseDocument@@QAEPAVMGSWatchDog@@XZ @ 6 NONAME ; class MGSWatchDog * CGSBaseDocument::WatchDog(void)
	?SetSelectedItem@CGSBaseContainer@@UAEXH@Z @ 7 NONAME ; void CGSBaseContainer::SetSelectedItem(int)
	?ComponentControl@CGSBaseContainer@@EBEPAVCCoeControl@@H@Z @ 8 NONAME ; class CCoeControl * CGSBaseContainer::ComponentControl(int) const
	?NewL@CGSPubSubsListener@@SAPAV1@VTUid@@HPAVMGSSettingPSObserver@@@Z @ 9 NONAME ; class CGSPubSubsListener * CGSPubSubsListener::NewL(class TUid, int, class MGSSettingPSObserver *)
	?GetImplInfo@CGSBaseDocument@@QAE?AV?$RPointerArray@VCImplementationInformation@@@@XZ @ 10 NONAME ; class RPointerArray<class CImplementationInformation> CGSBaseDocument::GetImplInfo(void)
	?LoadNextPluginL@CGSPluginLoader@@AAEXXZ @ 11 NONAME ; void CGSPluginLoader::LoadNextPluginL(void)
	??0CGSParentPlugin@@IAE@XZ @ 12 NONAME ; CGSParentPlugin::CGSParentPlugin(void)
	?NewL@CGSPluginLoader@@SAPAV1@PAVCAknViewAppUi@@@Z @ 13 NONAME ; class CGSPluginLoader * CGSPluginLoader::NewL(class CAknViewAppUi *)
	?GetHelpContext@CGSParentPlugin@@UAEXAAVTCoeHelpContext@@@Z @ 14 NONAME ; void CGSParentPlugin::GetHelpContext(class TCoeHelpContext &)
	?HandleCommandL@CGSParentPlugin@@MAEXH@Z @ 15 NONAME ; void CGSParentPlugin::HandleCommandL(int)
	?Get@CGSPubSubsListener@@QAEHAAVTDes8@@@Z @ 16 NONAME ; int CGSPubSubsListener::Get(class TDes8 &)
	??1CGSBaseContainer@@UAE@XZ @ 17 NONAME ; CGSBaseContainer::~CGSBaseContainer(void)
	?NewL@CGSTabHelper@@SAPAV1@XZ @ 18 NONAME ; class CGSTabHelper * CGSTabHelper::NewL(void)
	?ResetSelectedItemIndex@CGSParentPlugin@@UAEXXZ @ 19 NONAME ; void CGSParentPlugin::ResetSelectedItemIndex(void)
	??1CGSPubSubsListener@@UAE@XZ @ 20 NONAME ; CGSPubSubsListener::~CGSPubSubsListener(void)
	?SetObserver@CGSPluginLoader@@QAEXPAVMGSPluginLoadObserver@@@Z @ 21 NONAME ; void CGSPluginLoader::SetObserver(class MGSPluginLoadObserver *)
	?PrepareForUIDestruction@CGSBaseDocument@@QAEXXZ @ 22 NONAME ; void CGSBaseDocument::PrepareForUIDestruction(void)
	??1CGSPluginLoader@@UAE@XZ @ 23 NONAME ; CGSPluginLoader::~CGSPluginLoader(void)
	?CreateNaviPaneContextL@CGSBaseView@@MAEXH@Z @ 24 NONAME ; void CGSBaseView::CreateNaviPaneContextL(int)
	?CreateTabGroupL@CGSTabHelper@@QAEXVTUid@@PAV?$CArrayPtrFlat@VMGSTabbedView@@@@@Z @ 25 NONAME ; void CGSTabHelper::CreateTabGroupL(class TUid, class CArrayPtrFlat<class MGSTabbedView> *)
	?SetOptionFlags@CGSParentPlugin@@UAEXAAV?$TBitFlagsT@K@@@Z @ 26 NONAME ; void CGSParentPlugin::SetOptionFlags(class TBitFlagsT<unsigned long> &)
	??1CGSBaseDocument@@UAE@XZ @ 27 NONAME ; CGSBaseDocument::~CGSBaseDocument(void)
	?CreateTabGroupL@CGSTabHelper@@QAEXVTUid@@PAVMGSTabbedViewOwner@@@Z @ 28 NONAME ; void CGSTabHelper::CreateTabGroupL(class TUid, class MGSTabbedViewOwner *)
	?DynInitMenuPaneL@CGSParentPlugin@@MAEXHPAVCEikMenuPane@@@Z @ 29 NONAME ; void CGSParentPlugin::DynInitMenuPaneL(int, class CEikMenuPane *)
	?RemoveTabGroup@CGSTabHelper@@QAEXXZ @ 30 NONAME ; void CGSTabHelper::RemoveTabGroup(void)
	?DoDeactivate@CGSBaseView@@UAEXXZ @ 31 NONAME ; void CGSBaseView::DoDeactivate(void)
	?RequestPriority@CGSPluginLoader@@QAEXW4TPriority@CActive@@@Z @ 32 NONAME ; void CGSPluginLoader::RequestPriority(enum CActive::TPriority)
	?ConstructL@CGSPluginLoader@@AAEXPAVCAknViewAppUi@@@Z @ 33 NONAME ; void CGSPluginLoader::ConstructL(class CAknViewAppUi *)
	?AbortAsyncLoad@CGSPluginLoader@@QAEXXZ @ 34 NONAME ; void CGSPluginLoader::AbortAsyncLoad(void)
	?OpenLocalizedResourceFileL@CGSBaseView@@QAEXABVTDesC16@@AAVRConeResourceLoader@@@Z @ 35 NONAME ; void CGSBaseView::OpenLocalizedResourceFileL(class TDesC16 const &, class RConeResourceLoader &)
	?ResetSelectedItemIndex@CGSBaseView@@UAEXXZ @ 36 NONAME ; void CGSBaseView::ResetSelectedItemIndex(void)
	?BaseConstructL@CGSParentPlugin@@QAEXHH@Z @ 37 NONAME ; void CGSParentPlugin::BaseConstructL(int, int)
	??1CGSEComNotifier@@UAE@XZ @ 38 NONAME ; CGSEComNotifier::~CGSEComNotifier(void)
	?DoDeactivate@CGSParentPlugin@@MAEXXZ @ 39 NONAME ; void CGSParentPlugin::DoDeactivate(void)
	?DoActivateL@CGSParentPlugin@@MAEXABVTVwsViewId@@VTUid@@ABVTDesC8@@@Z @ 40 NONAME ; void CGSParentPlugin::DoActivateL(class TVwsViewId const &, class TUid, class TDesC8 const &)
	?OfferKeyEventL@CGSBaseContainer@@EAE?AW4TKeyResponse@@ABUTKeyEvent@@W4TEventCode@@@Z @ 41 NONAME ; enum TKeyResponse CGSBaseContainer::OfferKeyEventL(struct TKeyEvent const &, enum TEventCode)
	?NewL@CGSEComNotifier@@SAPAV1@PAVMGSEComObserver@@V?$RPointerArray@VCImplementationInformation@@@@@Z @ 42 NONAME ; class CGSEComNotifier * CGSEComNotifier::NewL(class MGSEComObserver *, class RPointerArray<class CImplementationInformation>)
	?Get@CGSPubSubsListener@@QAEHAAH@Z @ 43 NONAME ; int CGSPubSubsListener::Get(int &)
	?SortPluginsL@CGSPluginLoader@@QAEXPAV?$CArrayPtrFlat@VCGSPluginInterface@@@@@Z @ 44 NONAME ; void CGSPluginLoader::SortPluginsL(class CArrayPtrFlat<class CGSPluginInterface> *)
	??1CGSTabHelper@@UAE@XZ @ 45 NONAME ; CGSTabHelper::~CGSTabHelper(void)
	?HandlePluginLoaded@CGSParentPlugin@@UAEXW4KGSPluginLoaderStatus@MGSPluginLoadObserver@@@Z @ 46 NONAME ; void CGSParentPlugin::HandlePluginLoaded(enum MGSPluginLoadObserver::KGSPluginLoaderStatus)
	?ListBoxType@CGSParentPlugin@@UAE?AW4TGSListboxTypes@@XZ @ 47 NONAME ; enum TGSListboxTypes CGSParentPlugin::ListBoxType(void)
	?FocusChanged@CGSBaseContainer@@UAEXW4TDrawNow@@@Z @ 48 NONAME ; void CGSBaseContainer::FocusChanged(enum TDrawNow)
	?UpperLevelViewUid@CGSParentPlugin@@UAE?AVTUid@@XZ @ 49 NONAME ; class TUid CGSParentPlugin::UpperLevelViewUid(void)
	?OptionFlags@CGSParentPlugin@@UBEABV?$TBitFlagsT@K@@XZ @ 50 NONAME ; class TBitFlagsT<unsigned long> const & CGSParentPlugin::OptionFlags(void) const
	?BaseConstructL@CGSBaseContainer@@QAEXABVTRect@@HH@Z @ 51 NONAME ; void CGSBaseContainer::BaseConstructL(class TRect const &, int, int)
	?TabChangedL@CGSTabHelper@@UAEXH@Z @ 52 NONAME ; void CGSTabHelper::TabChangedL(int)
	?CountComponentControls@CGSBaseContainer@@EBEHXZ @ 53 NONAME ; int CGSBaseContainer::CountComponentControls(void) const
	?NewLC@CGSTabHelper@@SAPAV1@XZ @ 54 NONAME ; class CGSTabHelper * CGSTabHelper::NewLC(void)
	?SetCurrentItem@CGSBaseView@@UAEXH@Z @ 55 NONAME ; void CGSBaseView::SetCurrentItem(int)
	??1CGSBaseView@@UAE@XZ @ 56 NONAME ; CGSBaseView::~CGSBaseView(void)
	?Get@CGSPubSubsListener@@QAEHAAVTDes16@@@Z @ 57 NONAME ; int CGSPubSubsListener::Get(class TDes16 &)
	?PreparePluginCacheL@CGSBaseDocument@@QAEXAAVCEikAppUi@@@Z @ 58 NONAME ; void CGSBaseDocument::PreparePluginCacheL(class CEikAppUi &)
	?HandleResourceChange@CGSBaseContainer@@UAEXH@Z @ 59 NONAME ; void CGSBaseContainer::HandleResourceChange(int)
	?UpdateView@CGSParentPlugin@@UAEXXZ @ 60 NONAME ; void CGSParentPlugin::UpdateView(void)
	?TransferDynamicPluginL@CGSParentPlugin@@UAEXPAVCGSPluginInterface@@@Z @ 61 NONAME ; void CGSParentPlugin::TransferDynamicPluginL(class CGSPluginInterface *)
	?SizeChanged@CGSBaseContainer@@EAEXXZ @ 62 NONAME ; void CGSBaseContainer::SizeChanged(void)
	??0CGSBaseContainer@@QAE@XZ @ 63 NONAME ; CGSBaseContainer::CGSBaseContainer(void)
	??1CGSParentPlugin@@UAE@XZ @ 64 NONAME ; CGSParentPlugin::~CGSParentPlugin(void)
	?NewPluginUnloadWrapperLC@CGSBaseDocument@@QAEPAVCGSPluginWrapper@@XZ @ 65 NONAME ; class CGSPluginWrapper * CGSBaseDocument::NewPluginUnloadWrapperLC(void)
	?HandleListBoxEventL@CGSBaseView@@MAEXPAVCEikListBox@@W4TListBoxEvent@MEikListBoxObserver@@@Z @ 66 NONAME ; void CGSBaseView::HandleListBoxEventL(class CEikListBox *, enum MEikListBoxObserver::TListBoxEvent)
	?OpenLocalizedResourceFileL@CGSParentPlugin@@QAEXABVTDesC16@@AAVRConeResourceLoader@@@Z @ 67 NONAME ; void CGSParentPlugin::OpenLocalizedResourceFileL(class TDesC16 const &, class RConeResourceLoader &)
	?DoActivateL@CGSBaseView@@UAEXABVTVwsViewId@@VTUid@@ABVTDesC8@@@Z @ 68 NONAME ; void CGSBaseView::DoActivateL(class TVwsViewId const &, class TUid, class TDesC8 const &)
	?CreateTabGroupL@CGSTabHelper@@QAEXVTUid@@PAV?$CArrayPtrFlat@VCGSPluginInterface@@@@@Z @ 69 NONAME ; void CGSTabHelper::CreateTabGroupL(class TUid, class CArrayPtrFlat<class CGSPluginInterface> *)
	??0CGSBaseView@@QAE@XZ @ 70 NONAME ; CGSBaseView::CGSBaseView(void)
	??1CGSPluginWrapper@@UAE@XZ @ 71 NONAME ; CGSPluginWrapper::~CGSPluginWrapper(void)
	?FocusChanged@CGSParentContainer@@UAEXW4TDrawNow@@@Z @ 72 NONAME ; void CGSParentContainer::FocusChanged(enum TDrawNow)
	?LoadAsyncL@CGSPluginLoader@@QAEXVTUid@@0PAV?$CArrayPtrFlat@VCGSPluginInterface@@@@@Z @ 73 NONAME ; void CGSPluginLoader::LoadAsyncL(class TUid, class TUid, class CArrayPtrFlat<class CGSPluginInterface> *)
	?ConstructL@CGSBaseDocument@@IAEXXZ @ 74 NONAME ; void CGSBaseDocument::ConstructL(void)
	?CreateContainerL@CGSBaseView@@MAEXXZ @ 75 NONAME ; void CGSBaseView::CreateContainerL(void)
	??0CGSBaseDocument@@IAE@AAVCEikApplication@@@Z @ 76 NONAME ; CGSBaseDocument::CGSBaseDocument(class CEikApplication &)
	?CreateShimmedViewL@CGSBaseDocument@@QAEXVTUid@@@Z @ 77 NONAME ; void CGSBaseDocument::CreateShimmedViewL(class TUid)

