EXPORTS
	??1CGSListboxEntry@@UAE@XZ @ 1 NONAME ; CGSListboxEntry::~CGSListboxEntry(void)
	?Caption@CGSListboxEntry@@QBEABVTDesC16@@XZ @ 2 NONAME ; class TDesC16 const & CGSListboxEntry::Caption(void) const
	?CurrentFeature@CGSItemTextArray@@UBEHXZ @ 3 NONAME ; int CGSItemTextArray::CurrentFeature(void) const
	?CurrentFeature@CGSListBoxItemTextArray@@UBEHXZ @ 4 NONAME ; int CGSListBoxItemTextArray::CurrentFeature(void) const
	?CurrentFeature@CGSRadioButtonSettingPageItemTextArray@@UBEHXZ @ 5 NONAME ; int CGSRadioButtonSettingPageItemTextArray::CurrentFeature(void) const
	?FeatureByIdL@CGSItemTextArray@@QBEPBVCGSListboxEntry@@H@Z @ 6 NONAME ; class CGSListboxEntry const * CGSItemTextArray::FeatureByIdL(int) const
	?FeatureId@CGSListboxEntry@@QBEHXZ @ 7 NONAME ; int CGSListboxEntry::FeatureId(void) const
	?FeatureIdByIndex@CGSItemTextArray@@QBEHH@Z @ 8 NONAME ; int CGSItemTextArray::FeatureIdByIndex(int) const
	?GetItemCaptionFromFeatureIdLC@CGSItemTextArray@@SAPAVHBufC16@@KHAAVCCoeEnv@@@Z @ 9 NONAME ; class HBufC16 * CGSItemTextArray::GetItemCaptionFromFeatureIdLC(unsigned long, int, class CCoeEnv &)
	?IndexForFeatureIdL@CGSItemTextArray@@QBEHH@Z @ 10 NONAME ; int CGSItemTextArray::IndexForFeatureIdL(int) const
	?MdcaCount@CGSItemTextArray@@UBEHXZ @ 11 NONAME ; int CGSItemTextArray::MdcaCount(void) const
	?MdcaPoint@CGSItemTextArray@@UBE?AVTPtrC16@@H@Z @ 12 NONAME ; class TPtrC16 CGSItemTextArray::MdcaPoint(int) const
	?NewL@CGSItemTextArray@@SAPAV1@KAAVCCoeEnv@@@Z @ 13 NONAME ; class CGSItemTextArray * CGSItemTextArray::NewL(unsigned long, class CCoeEnv &)
	?NewL@CGSListBoxItemTextArray@@SAPAV1@KAAVCEikListBox@@AAVCCoeEnv@@@Z @ 14 NONAME ; class CGSListBoxItemTextArray * CGSListBoxItemTextArray::NewL(unsigned long, class CEikListBox &, class CCoeEnv &)
	?NewL@CGSRadioButtonSettingPageItemTextArray@@SAPAV1@KAAVCCoeEnv@@PAVCAknRadioButtonSettingPage@@@Z @ 15 NONAME ; class CGSRadioButtonSettingPageItemTextArray * CGSRadioButtonSettingPageItemTextArray::NewL(unsigned long, class CCoeEnv &, class CAknRadioButtonSettingPage *)
	?NewLC@CGSListboxEntry@@SAPAV1@AAVTResourceReader@@@Z @ 16 NONAME ; class CGSListboxEntry * CGSListboxEntry::NewLC(class TResourceReader &)
	?NewLC@CGSListboxEntry@@SAPAV1@H@Z @ 17 NONAME ; class CGSListboxEntry * CGSListboxEntry::NewLC(int)
	?SetDynamicTextL@CGSItemTextArray@@QAEXHABVTDesC16@@@Z @ 18 NONAME ; void CGSItemTextArray::SetDynamicTextL(int, class TDesC16 const &)
	?SetDynamicTextL@CGSListboxEntry@@QAEXABVTDesC16@@@Z @ 19 NONAME ; void CGSListboxEntry::SetDynamicTextL(class TDesC16 const &)
	?SetItemVisibilityL@CGSItemTextArray@@QAEXHW4TVisibility@1@@Z @ 20 NONAME ; void CGSItemTextArray::SetItemVisibilityL(int, enum CGSItemTextArray::TVisibility)
	?SetRadioButtonSettingPage@CGSRadioButtonSettingPageItemTextArray@@QAEXAAVCAknRadioButtonSettingPage@@@Z @ 21 NONAME ; void CGSRadioButtonSettingPageItemTextArray::SetRadioButtonSettingPage(class CAknRadioButtonSettingPage &)
	?Type@CGSListboxEntry@@QBEHXZ @ 22 NONAME ; int CGSListboxEntry::Type(void) const
	?NewL@CGSListBoxItemTextArray@@SAPAV1@KAAVCEikListBox@@AAVCCoeEnv@@H@Z @ 23 NONAME ; class CGSListBoxItemTextArray * CGSListBoxItemTextArray::NewL(unsigned long, class CEikListBox &, class CCoeEnv &, int)
	?NewLC@CGSListboxEntry@@SAPAV1@KAAVCCoeEnv@@H@Z @ 24 NONAME ; class CGSListboxEntry * CGSListboxEntry::NewLC(unsigned long, class CCoeEnv &, int)
	?SetDynamicTextDoublePaneL@CGSItemTextArray@@QAEXHABVTDesC16@@@Z @ 25 NONAME ; void CGSItemTextArray::SetDynamicTextDoublePaneL(int, class TDesC16 const &)
	?SetDynamicTextDoublePaneL@CGSListboxEntry@@QAEXABVTDesC16@@@Z @ 26 NONAME ; void CGSListboxEntry::SetDynamicTextDoublePaneL(class TDesC16 const &)

