EXPORTS
	??1CFLDController@@UAE@XZ @ 1 NONAME ; CFLDController::~CFLDController(void)
	??1CFLDFileListContainer@@UAE@XZ @ 2 NONAME ; CFLDFileListContainer::~CFLDFileListContainer(void)
	?AddExclusiveMediaTypeL@CFLDFileListContainer@@QAEXJ@Z @ 3 NONAME ; void CFLDFileListContainer::AddExclusiveMediaTypeL(long)
	?AddExclusiveMimeTypeL@CFLDFileListContainer@@QAEXABVTDesC16@@@Z @ 4 NONAME ; void CFLDFileListContainer::AddExclusiveMimeTypeL(class TDesC16 const &)
	?CompleteConstructionL@CFLDController@@QAEXAAVRWindow@@@Z @ 5 NONAME ; void CFLDController::CompleteConstructionL(class RWindow &)
	?HandleFileListBoxEventL@CFLDController@@UAEXW4TFileListBoxEvent@MFLDFileListBoxObserver@@ABVTDesC16@@@Z @ 6 NONAME ; void CFLDController::HandleFileListBoxEventL(enum MFLDFileListBoxObserver::TFileListBoxEvent, class TDesC16 const &)
	?InsertEndNullItemL@CFLDFileListContainer@@QAEXABVTDesC16@@0@Z @ 7 NONAME ; void CFLDFileListContainer::InsertEndNullItemL(class TDesC16 const &, class TDesC16 const &)
	?InsertEndNullItemL@CFLDFileListContainer@@QAEXABVTDesC16@@@Z @ 8 NONAME ; void CFLDFileListContainer::InsertEndNullItemL(class TDesC16 const &)
	?InsertNullItemL@CFLDFileListContainer@@QAEXABVTDesC16@@0@Z @ 9 NONAME ; void CFLDFileListContainer::InsertNullItemL(class TDesC16 const &, class TDesC16 const &)
	?InsertNullItemL@CFLDFileListContainer@@QAEXABVTDesC16@@@Z @ 10 NONAME ; void CFLDFileListContainer::InsertNullItemL(class TDesC16 const &)
	?LaunchL@CFLDFileListContainer@@QAEHAAVTDes16@@ABVTDesC16@@@Z @ 11 NONAME ; int CFLDFileListContainer::LaunchL(class TDes16 &, class TDesC16 const &)
	?NewL@CFLDController@@SAPAV1@HVTTimeIntervalMicroSeconds32@@@Z @ 12 NONAME ; class CFLDController * CFLDController::NewL(int, class TTimeIntervalMicroSeconds32)
	?NewL@CFLDFileListContainer@@SAPAV1@H@Z @ 13 NONAME ; class CFLDFileListContainer * CFLDFileListContainer::NewL(int)
	?NewL@CFLDFileListContainer@@SAPAV1@HH@Z @ 14 NONAME ; class CFLDFileListContainer * CFLDFileListContainer::NewL(int, int)
	?NewL@CFLDFileListContainer@@SAPAV1@XZ @ 15 NONAME ; class CFLDFileListContainer * CFLDFileListContainer::NewL(void)
	?NewLC@CFLDController@@SAPAV1@HVTTimeIntervalMicroSeconds32@@@Z @ 16 NONAME ; class CFLDController * CFLDController::NewLC(int, class TTimeIntervalMicroSeconds32)
	?NewLC@CFLDFileListContainer@@SAPAV1@H@Z @ 17 NONAME ; class CFLDFileListContainer * CFLDFileListContainer::NewLC(int)
	?NewLC@CFLDFileListContainer@@SAPAV1@HH@Z @ 18 NONAME ; class CFLDFileListContainer * CFLDFileListContainer::NewLC(int, int)
	?NewLC@CFLDFileListContainer@@SAPAV1@XZ @ 19 NONAME ; class CFLDFileListContainer * CFLDFileListContainer::NewLC(void)
	?ResetExclusiveMediaTypes@CFLDFileListContainer@@QAEXXZ @ 20 NONAME ; void CFLDFileListContainer::ResetExclusiveMediaTypes(void)
	?ResetExclusiveMimeTypes@CFLDFileListContainer@@QAEXXZ @ 21 NONAME ; void CFLDFileListContainer::ResetExclusiveMimeTypes(void)
	?SetAutomatedType@CFLDFileListContainer@@QAEXW4TDRMHelperAutomatedType@CDRMHelper@@@Z @ 22 NONAME ; void CFLDFileListContainer::SetAutomatedType(enum CDRMHelper::TDRMHelperAutomatedType)
	?SetDelay@CFLDController@@QAEXVTTimeIntervalMicroSeconds32@@@Z @ 23 NONAME ; void CFLDController::SetDelay(class TTimeIntervalMicroSeconds32)
	?SetDelay@CFLDFileListContainer@@QAEXVTTimeIntervalMicroSeconds32@@@Z @ 24 NONAME ; void CFLDFileListContainer::SetDelay(class TTimeIntervalMicroSeconds32)
	?SetFileObserver@CFLDController@@QAEXPAVMFLDFileObserver@@@Z @ 25 NONAME ; void CFLDController::SetFileObserver(class MFLDFileObserver *)
	?SetMaxFileSize@CFLDFileListContainer@@QAEXH@Z @ 26 NONAME ; void CFLDFileListContainer::SetMaxFileSize(int)
	?SetRingingType@CFLDController@@QAEXH@Z @ 27 NONAME ; void CFLDController::SetRingingType(int)
	?SetRingingType@CFLDFileListContainer@@QAEXH@Z @ 28 NONAME ; void CFLDFileListContainer::SetRingingType(int)
	?SetVibra@CFLDController@@QAEXH@Z @ 29 NONAME ; void CFLDController::SetVibra(int)
	?SetVibra@CFLDFileListContainer@@QAEXH@Z @ 30 NONAME ; void CFLDFileListContainer::SetVibra(int)
	?SetVolume@CFLDController@@QAEXH@Z @ 31 NONAME ; void CFLDController::SetVolume(int)
	?SetVolume@CFLDFileListContainer@@QAEXH@Z @ 32 NONAME ; void CFLDFileListContainer::SetVolume(int)
	?SetWantedMediaTypesL@CFLDFileListContainer@@QAEXABV?$TArray@W4TCLFMediaType@@@@@Z @ 33 NONAME ; void CFLDFileListContainer::SetWantedMediaTypesL(class TArray<enum TCLFMediaType> const &)
	?SetWantedMimeTypesL@CFLDFileListContainer@@QAEXABVMDesC16Array@@@Z @ 34 NONAME ; void CFLDFileListContainer::SetWantedMimeTypesL(class MDesC16Array const &)
	?Set3dEffects@CFLDController@@QAEXH@Z @ 35 NONAME ; void CFLDController::Set3dEffects(int)
	?Set3dEffects@CFLDFileListContainer@@QAEXH@Z @ 36 NONAME ; void CFLDFileListContainer::Set3dEffects(int)

