EXPORTS
	_ZN16CpItemDataHelper11qt_metacallEN11QMetaObject4CallEiPPv @ 1 NONAME
	_ZN16CpItemDataHelper11qt_metacastEPKc @ 2 NONAME
	_ZN16CpItemDataHelper13addConnectionEP19HbDataFormModelItemRK7QStringP7QObjectS4_ @ 3 NONAME
	_ZN16CpItemDataHelper14prototypeAddedEP18HbAbstractViewItem @ 4 NONAME
	_ZN16CpItemDataHelper15connectionAddedEP19HbDataFormModelItemRK7QStringP7QObjectS4_ @ 5 NONAME
	_ZN16CpItemDataHelper16addItemPrototypeEP18HbAbstractViewItem @ 6 NONAME
	_ZN16CpItemDataHelper16removeConnectionEP19HbDataFormModelItemRK7QStringP7QObjectS4_ @ 7 NONAME
	_ZN16CpItemDataHelper16staticMetaObjectE @ 8 NONAME DATA 16
	_ZN16CpItemDataHelper17connectionRemovedEP19HbDataFormModelItemRK7QStringP7QObjectS4_ @ 9 NONAME
	_ZN16CpItemDataHelper19getStaticMetaObjectEv @ 10 NONAME
	_ZN16CpItemDataHelperC1Ev @ 11 NONAME
	_ZN16CpItemDataHelperC2Ev @ 12 NONAME
	_ZN16CpItemDataHelperD0Ev @ 13 NONAME
	_ZN16CpItemDataHelperD1Ev @ 14 NONAME
	_ZN16CpItemDataHelperD2Ev @ 15 NONAME
	_ZN16CpPluginLauncher18launchCpPluginViewERK7QString @ 16 NONAME
	_ZN17CpBaseSettingView11qt_metacallEN11QMetaObject4CallEiPPv @ 17 NONAME
	_ZN17CpBaseSettingView11qt_metacastEPKc @ 18 NONAME
	_ZN17CpBaseSettingView12aboutToCloseEv @ 19 NONAME
	_ZN17CpBaseSettingView14setSettingFormEP10HbDataForm @ 20 NONAME
	_ZN17CpBaseSettingView16staticMetaObjectE @ 21 NONAME DATA 16
	_ZN17CpBaseSettingView19getStaticMetaObjectEv @ 22 NONAME
	_ZN17CpBaseSettingView9setWidgetEP15QGraphicsWidget @ 23 NONAME
	_ZN17CpBaseSettingViewC1EP10HbDataFormP13QGraphicsItem @ 24 NONAME
	_ZN17CpBaseSettingViewC2EP10HbDataFormP13QGraphicsItem @ 25 NONAME
	_ZN17CpBaseSettingViewD0Ev @ 26 NONAME
	_ZN17CpBaseSettingViewD1Ev @ 27 NONAME
	_ZN17CpBaseSettingViewD2Ev @ 28 NONAME
	_ZN21CpSettingFormItemData11qt_metacallEN11QMetaObject4CallEiPPv @ 29 NONAME
	_ZN21CpSettingFormItemData11qt_metacastEPKc @ 30 NONAME
	_ZN21CpSettingFormItemData16staticMetaObjectE @ 31 NONAME DATA 16
	_ZN21CpSettingFormItemData19getStaticMetaObjectEv @ 32 NONAME
	_ZN21CpSettingFormItemDataC1EN19HbDataFormModelItem12DataItemTypeERK7QStringPKS0_ @ 33 NONAME
	_ZN21CpSettingFormItemDataC1EPK19HbDataFormModelItem @ 34 NONAME
	_ZN21CpSettingFormItemDataC2EN19HbDataFormModelItem12DataItemTypeERK7QStringPKS0_ @ 35 NONAME
	_ZN21CpSettingFormItemDataC2EPK19HbDataFormModelItem @ 36 NONAME
	_ZN21CpSettingFormItemDataD0Ev @ 37 NONAME
	_ZN21CpSettingFormItemDataD1Ev @ 38 NONAME
	_ZN21CpSettingFormItemDataD2Ev @ 39 NONAME
	_ZN26CpCategorySettingFormModel10initializeER16CpItemDataHelper @ 40 NONAME
	_ZN26CpCategorySettingFormModel11qt_metacallEN11QMetaObject4CallEiPPv @ 41 NONAME
	_ZN26CpCategorySettingFormModel11qt_metacastEPKc @ 42 NONAME
	_ZN26CpCategorySettingFormModel16staticMetaObjectE @ 43 NONAME DATA 16
	_ZN26CpCategorySettingFormModel19getStaticMetaObjectEv @ 44 NONAME
	_ZN26CpCategorySettingFormModel25afterLoadingConfigPluginsER16CpItemDataHelper @ 45 NONAME
	_ZN26CpCategorySettingFormModel26beforeLoadingConfigPluginsER16CpItemDataHelper @ 46 NONAME
	_ZN26CpCategorySettingFormModelC1ERK7QString @ 47 NONAME
	_ZN26CpCategorySettingFormModelC2ERK7QString @ 48 NONAME
	_ZN26CpCategorySettingFormModelD0Ev @ 49 NONAME
	_ZN26CpCategorySettingFormModelD1Ev @ 50 NONAME
	_ZN26CpCategorySettingFormModelD2Ev @ 51 NONAME
	_ZN26CpSettingFormEntryItemData11qt_metacallEN11QMetaObject4CallEiPPv @ 52 NONAME
	_ZN26CpSettingFormEntryItemData11qt_metacastEPKc @ 53 NONAME
	_ZN26CpSettingFormEntryItemData12onLaunchViewEv @ 54 NONAME
	_ZN26CpSettingFormEntryItemData14setDescriptionERK7QString @ 55 NONAME
	_ZN26CpSettingFormEntryItemData16setEntryItemIconERK6HbIcon @ 56 NONAME
	_ZN26CpSettingFormEntryItemData16staticMetaObjectE @ 57 NONAME DATA 16
	_ZN26CpSettingFormEntryItemData19getStaticMetaObjectEv @ 58 NONAME
	_ZN26CpSettingFormEntryItemData7setTextERK7QString @ 59 NONAME
	_ZN26CpSettingFormEntryItemDataC2ER16CpItemDataHelperRK7QStringS4_RK6HbIconPK19HbDataFormModelItem @ 60 NONAME
	_ZN26CpSettingFormEntryItemDataD0Ev @ 61 NONAME
	_ZN26CpSettingFormEntryItemDataD1Ev @ 62 NONAME
	_ZN26CpSettingFormEntryItemDataD2Ev @ 63 NONAME
	_ZN29CpCategorySettingFormItemData10initializeER16CpItemDataHelper @ 64 NONAME
	_ZN29CpCategorySettingFormItemData11qt_metacallEN11QMetaObject4CallEiPPv @ 65 NONAME
	_ZN29CpCategorySettingFormItemData11qt_metacastEPKc @ 66 NONAME
	_ZN29CpCategorySettingFormItemData16staticMetaObjectE @ 67 NONAME DATA 16
	_ZN29CpCategorySettingFormItemData19getStaticMetaObjectEv @ 68 NONAME
	_ZN29CpCategorySettingFormItemData25afterLoadingConfigPluginsER16CpItemDataHelper @ 69 NONAME
	_ZN29CpCategorySettingFormItemData26beforeLoadingConfigPluginsER16CpItemDataHelper @ 70 NONAME
	_ZN29CpCategorySettingFormItemDataC1EN19HbDataFormModelItem12DataItemTypeERK7QStringS4_PKS0_ @ 71 NONAME
	_ZN29CpCategorySettingFormItemDataC1ERK7QStringPK19HbDataFormModelItem @ 72 NONAME
	_ZN29CpCategorySettingFormItemDataC2EN19HbDataFormModelItem12DataItemTypeERK7QStringS4_PKS0_ @ 73 NONAME
	_ZN29CpCategorySettingFormItemDataC2ERK7QStringPK19HbDataFormModelItem @ 74 NONAME
	_ZN29CpCategorySettingFormItemDataD0Ev @ 75 NONAME
	_ZN29CpCategorySettingFormItemDataD1Ev @ 76 NONAME
	_ZN29CpCategorySettingFormItemDataD2Ev @ 77 NONAME
	_ZNK16CpItemDataHelper10bindToFormEP10HbDataForm @ 78 NONAME
	_ZNK16CpItemDataHelper10metaObjectEv @ 79 NONAME
	_ZNK17CpBaseSettingView10metaObjectEv @ 80 NONAME
	_ZNK17CpBaseSettingView11settingFormEv @ 81 NONAME
	_ZNK21CpSettingFormItemData10metaObjectEv @ 82 NONAME
	_ZNK26CpCategorySettingFormModel10metaObjectEv @ 83 NONAME
	_ZNK26CpSettingFormEntryItemData10metaObjectEv @ 84 NONAME
	_ZNK26CpSettingFormEntryItemData11descriptionEv @ 85 NONAME
	_ZNK26CpSettingFormEntryItemData13entryItemIconEv @ 86 NONAME
	_ZNK26CpSettingFormEntryItemData4textEv @ 87 NONAME
	_ZNK29CpCategorySettingFormItemData10metaObjectEv @ 88 NONAME
	_ZTI16CpItemDataHelper @ 89 NONAME
	_ZTI17CpBaseSettingView @ 90 NONAME
	_ZTI21CpSettingFormItemData @ 91 NONAME
	_ZTI26CpCategorySettingFormModel @ 92 NONAME
	_ZTI26CpSettingFormEntryItemData @ 93 NONAME
	_ZTI29CpCategorySettingFormItemData @ 94 NONAME
	_ZTV16CpItemDataHelper @ 95 NONAME
	_ZTV17CpBaseSettingView @ 96 NONAME
	_ZTV21CpSettingFormItemData @ 97 NONAME
	_ZTV26CpCategorySettingFormModel @ 98 NONAME
	_ZTV26CpSettingFormEntryItemData @ 99 NONAME
	_ZTV29CpCategorySettingFormItemData @ 100 NONAME
	_ZThn16_N17CpBaseSettingViewD0Ev @ 101 NONAME
	_ZThn16_N17CpBaseSettingViewD1Ev @ 102 NONAME
	_ZThn8_N17CpBaseSettingViewD0Ev @ 103 NONAME
	_ZThn8_N17CpBaseSettingViewD1Ev @ 104 NONAME
	_ZThn8_N21CpSettingFormItemDataD0Ev @ 105 NONAME
	_ZThn8_N21CpSettingFormItemDataD1Ev @ 106 NONAME
	_ZThn8_N26CpSettingFormEntryItemDataD0Ev @ 107 NONAME
	_ZThn8_N26CpSettingFormEntryItemDataD1Ev @ 108 NONAME
	_ZThn8_N29CpCategorySettingFormItemDataD0Ev @ 109 NONAME
	_ZThn8_N29CpCategorySettingFormItemDataD1Ev @ 110 NONAME

