EXPORTS
	?trUtf8@CpItemDataHelper@@SA?AVQString@@PBD0H@Z @ 1 NONAME ; class QString CpItemDataHelper::trUtf8(char const *, char const *, int)
	?onLaunchView@CpSettingFormEntryItemData@@AAEXXZ @ 2 NONAME ; void CpSettingFormEntryItemData::onLaunchView(void)
	??1CpCategorySettingFormModel@@UAE@XZ @ 3 NONAME ; CpCategorySettingFormModel::~CpCategorySettingFormModel(void)
	?beforeLoadingConfigPlugins@CpCategorySettingFormItemData@@EAEXAAVCpItemDataHelper@@@Z @ 4 NONAME ; void CpCategorySettingFormItemData::beforeLoadingConfigPlugins(class CpItemDataHelper &)
	?trUtf8@CpItemDataHelper@@SA?AVQString@@PBD0@Z @ 5 NONAME ; class QString CpItemDataHelper::trUtf8(char const *, char const *)
	??1CpItemDataHelper@@UAE@XZ @ 6 NONAME ; CpItemDataHelper::~CpItemDataHelper(void)
	?trUtf8@CpCategorySettingFormModel@@SA?AVQString@@PBD0H@Z @ 7 NONAME ; class QString CpCategorySettingFormModel::trUtf8(char const *, char const *, int)
	??0CpCategorySettingFormModel@@QAE@ABVQString@@@Z @ 8 NONAME ; CpCategorySettingFormModel::CpCategorySettingFormModel(class QString const &)
	?setWidget@CpBaseSettingView@@AAEXPAVQGraphicsWidget@@@Z @ 9 NONAME ; void CpBaseSettingView::setWidget(class QGraphicsWidget *)
	??_ECpSettingFormEntryItemData@@UAE@I@Z @ 10 NONAME ; CpSettingFormEntryItemData::~CpSettingFormEntryItemData(unsigned int)
	?staticMetaObject@CpItemDataHelper@@2UQMetaObject@@B @ 11 NONAME ; struct QMetaObject const CpItemDataHelper::staticMetaObject
	?metaObject@CpBaseSettingView@@UBEPBUQMetaObject@@XZ @ 12 NONAME ; struct QMetaObject const * CpBaseSettingView::metaObject(void) const
	?tr@CpCategorySettingFormItemData@@SA?AVQString@@PBD0@Z @ 13 NONAME ; class QString CpCategorySettingFormItemData::tr(char const *, char const *)
	?getStaticMetaObject@CpCategorySettingFormModel@@SAABUQMetaObject@@XZ @ 14 NONAME ; struct QMetaObject const & CpCategorySettingFormModel::getStaticMetaObject(void)
	?d_func@CpBaseSettingView@@AAEPAVCpBaseSettingViewPrivate@@XZ @ 15 NONAME ; class CpBaseSettingViewPrivate * CpBaseSettingView::d_func(void)
	?text@CpSettingFormEntryItemData@@QBE?AVQString@@XZ @ 16 NONAME ; class QString CpSettingFormEntryItemData::text(void) const
	?qt_metacast@CpSettingFormItemData@@UAEPAXPBD@Z @ 17 NONAME ; void * CpSettingFormItemData::qt_metacast(char const *)
	?initialize@CpCategorySettingFormModel@@UAEXAAVCpItemDataHelper@@@Z @ 18 NONAME ; void CpCategorySettingFormModel::initialize(class CpItemDataHelper &)
	?bindToForm@CpItemDataHelper@@QBEXPAVHbDataForm@@@Z @ 19 NONAME ; void CpItemDataHelper::bindToForm(class HbDataForm *) const
	??0CpSettingFormItemData@@QAE@W4DataItemType@HbDataFormModelItem@@ABVQString@@PBV2@@Z @ 20 NONAME ; CpSettingFormItemData::CpSettingFormItemData(enum HbDataFormModelItem::DataItemType, class QString const &, class HbDataFormModelItem const *)
	?beforeLoadingConfigPlugins@CpCategorySettingFormModel@@EAEXAAVCpItemDataHelper@@@Z @ 21 NONAME ; void CpCategorySettingFormModel::beforeLoadingConfigPlugins(class CpItemDataHelper &)
	??1CpCategorySettingFormItemData@@UAE@XZ @ 22 NONAME ; CpCategorySettingFormItemData::~CpCategorySettingFormItemData(void)
	?qt_metacast@CpItemDataHelper@@UAEPAXPBD@Z @ 23 NONAME ; void * CpItemDataHelper::qt_metacast(char const *)
	?trUtf8@CpCategorySettingFormModel@@SA?AVQString@@PBD0@Z @ 24 NONAME ; class QString CpCategorySettingFormModel::trUtf8(char const *, char const *)
	?staticMetaObject@CpCategorySettingFormModel@@2UQMetaObject@@B @ 25 NONAME ; struct QMetaObject const CpCategorySettingFormModel::staticMetaObject
	?tr@CpSettingFormEntryItemData@@SA?AVQString@@PBD0@Z @ 26 NONAME ; class QString CpSettingFormEntryItemData::tr(char const *, char const *)
	??0CpSettingFormItemData@@QAE@PBVHbDataFormModelItem@@@Z @ 27 NONAME ; CpSettingFormItemData::CpSettingFormItemData(class HbDataFormModelItem const *)
	?qt_metacall@CpCategorySettingFormModel@@UAEHW4Call@QMetaObject@@HPAPAX@Z @ 28 NONAME ; int CpCategorySettingFormModel::qt_metacall(enum QMetaObject::Call, int, void * *)
	?qt_metacast@CpBaseSettingView@@UAEPAXPBD@Z @ 29 NONAME ; void * CpBaseSettingView::qt_metacast(char const *)
	?launchCpPluginView@CpPluginLauncher@@SA_NABVQString@@@Z @ 30 NONAME ; bool CpPluginLauncher::launchCpPluginView(class QString const &)
	?getStaticMetaObject@CpBaseSettingView@@SAABUQMetaObject@@XZ @ 31 NONAME ; struct QMetaObject const & CpBaseSettingView::getStaticMetaObject(void)
	?afterLoadingConfigPlugins@CpCategorySettingFormModel@@EAEXAAVCpItemDataHelper@@@Z @ 32 NONAME ; void CpCategorySettingFormModel::afterLoadingConfigPlugins(class CpItemDataHelper &)
	?removeConnection@CpItemDataHelper@@QAEXPAVHbDataFormModelItem@@ABVQString@@PAVQObject@@1@Z @ 33 NONAME ; void CpItemDataHelper::removeConnection(class HbDataFormModelItem *, class QString const &, class QObject *, class QString const &)
	??1CpSettingFormItemData@@UAE@XZ @ 34 NONAME ; CpSettingFormItemData::~CpSettingFormItemData(void)
	?setDescription@CpSettingFormEntryItemData@@QAEXABVQString@@@Z @ 35 NONAME ; void CpSettingFormEntryItemData::setDescription(class QString const &)
	?d_func@CpBaseSettingView@@ABEPBVCpBaseSettingViewPrivate@@XZ @ 36 NONAME ; class CpBaseSettingViewPrivate const * CpBaseSettingView::d_func(void) const
	?tr@CpSettingFormEntryItemData@@SA?AVQString@@PBD0H@Z @ 37 NONAME ; class QString CpSettingFormEntryItemData::tr(char const *, char const *, int)
	?getStaticMetaObject@CpSettingFormItemData@@SAABUQMetaObject@@XZ @ 38 NONAME ; struct QMetaObject const & CpSettingFormItemData::getStaticMetaObject(void)
	?aboutToClose@CpBaseSettingView@@IAEXXZ @ 39 NONAME ; void CpBaseSettingView::aboutToClose(void)
	?staticMetaObject@CpSettingFormEntryItemData@@2UQMetaObject@@B @ 40 NONAME ; struct QMetaObject const CpSettingFormEntryItemData::staticMetaObject
	??0CpCategorySettingFormItemData@@QAE@W4DataItemType@HbDataFormModelItem@@ABVQString@@1PBV2@@Z @ 41 NONAME ; CpCategorySettingFormItemData::CpCategorySettingFormItemData(enum HbDataFormModelItem::DataItemType, class QString const &, class QString const &, class HbDataFormModelItem const *)
	?qt_metacall@CpSettingFormItemData@@UAEHW4Call@QMetaObject@@HPAPAX@Z @ 42 NONAME ; int CpSettingFormItemData::qt_metacall(enum QMetaObject::Call, int, void * *)
	?metaObject@CpCategorySettingFormModel@@UBEPBUQMetaObject@@XZ @ 43 NONAME ; struct QMetaObject const * CpCategorySettingFormModel::metaObject(void) const
	?afterLoadingConfigPlugins@CpCategorySettingFormItemData@@EAEXAAVCpItemDataHelper@@@Z @ 44 NONAME ; void CpCategorySettingFormItemData::afterLoadingConfigPlugins(class CpItemDataHelper &)
	?staticMetaObject@CpCategorySettingFormItemData@@2UQMetaObject@@B @ 45 NONAME ; struct QMetaObject const CpCategorySettingFormItemData::staticMetaObject
	?metaObject@CpCategorySettingFormItemData@@UBEPBUQMetaObject@@XZ @ 46 NONAME ; struct QMetaObject const * CpCategorySettingFormItemData::metaObject(void) const
	??_ECpBaseSettingView@@UAE@I@Z @ 47 NONAME ; CpBaseSettingView::~CpBaseSettingView(unsigned int)
	??_ECpSettingFormItemData@@UAE@I@Z @ 48 NONAME ; CpSettingFormItemData::~CpSettingFormItemData(unsigned int)
	??_ECpCategorySettingFormModel@@UAE@I@Z @ 49 NONAME ; CpCategorySettingFormModel::~CpCategorySettingFormModel(unsigned int)
	?trUtf8@CpSettingFormEntryItemData@@SA?AVQString@@PBD0H@Z @ 50 NONAME ; class QString CpSettingFormEntryItemData::trUtf8(char const *, char const *, int)
	?trUtf8@CpSettingFormItemData@@SA?AVQString@@PBD0H@Z @ 51 NONAME ; class QString CpSettingFormItemData::trUtf8(char const *, char const *, int)
	?tr@CpBaseSettingView@@SA?AVQString@@PBD0H@Z @ 52 NONAME ; class QString CpBaseSettingView::tr(char const *, char const *, int)
	?staticMetaObject@CpBaseSettingView@@2UQMetaObject@@B @ 53 NONAME ; struct QMetaObject const CpBaseSettingView::staticMetaObject
	?tr@CpBaseSettingView@@SA?AVQString@@PBD0@Z @ 54 NONAME ; class QString CpBaseSettingView::tr(char const *, char const *)
	?settingForm@CpBaseSettingView@@QBEPAVHbDataForm@@XZ @ 55 NONAME ; class HbDataForm * CpBaseSettingView::settingForm(void) const
	?description@CpSettingFormEntryItemData@@QBE?AVQString@@XZ @ 56 NONAME ; class QString CpSettingFormEntryItemData::description(void) const
	?trUtf8@CpCategorySettingFormItemData@@SA?AVQString@@PBD0@Z @ 57 NONAME ; class QString CpCategorySettingFormItemData::trUtf8(char const *, char const *)
	?tr@CpCategorySettingFormModel@@SA?AVQString@@PBD0@Z @ 58 NONAME ; class QString CpCategorySettingFormModel::tr(char const *, char const *)
	?initialize@CpCategorySettingFormItemData@@QAEXAAVCpItemDataHelper@@@Z @ 59 NONAME ; void CpCategorySettingFormItemData::initialize(class CpItemDataHelper &)
	?tr@CpSettingFormItemData@@SA?AVQString@@PBD0@Z @ 60 NONAME ; class QString CpSettingFormItemData::tr(char const *, char const *)
	??0CpBaseSettingView@@QAE@PAVHbDataForm@@PAVQGraphicsItem@@@Z @ 61 NONAME ; CpBaseSettingView::CpBaseSettingView(class HbDataForm *, class QGraphicsItem *)
	?tr@CpCategorySettingFormItemData@@SA?AVQString@@PBD0H@Z @ 62 NONAME ; class QString CpCategorySettingFormItemData::tr(char const *, char const *, int)
	?connectionAdded@CpItemDataHelper@@IAEXPAVHbDataFormModelItem@@ABVQString@@PAVQObject@@1@Z @ 63 NONAME ; void CpItemDataHelper::connectionAdded(class HbDataFormModelItem *, class QString const &, class QObject *, class QString const &)
	?connectionRemoved@CpItemDataHelper@@IAEXPAVHbDataFormModelItem@@ABVQString@@PAVQObject@@1@Z @ 64 NONAME ; void CpItemDataHelper::connectionRemoved(class HbDataFormModelItem *, class QString const &, class QObject *, class QString const &)
	?setSettingForm@CpBaseSettingView@@QAEXPAVHbDataForm@@@Z @ 65 NONAME ; void CpBaseSettingView::setSettingForm(class HbDataForm *)
	?tr@CpSettingFormItemData@@SA?AVQString@@PBD0H@Z @ 66 NONAME ; class QString CpSettingFormItemData::tr(char const *, char const *, int)
	?tr@CpItemDataHelper@@SA?AVQString@@PBD0H@Z @ 67 NONAME ; class QString CpItemDataHelper::tr(char const *, char const *, int)
	??0CpItemDataHelper@@QAE@XZ @ 68 NONAME ; CpItemDataHelper::CpItemDataHelper(void)
	?trUtf8@CpSettingFormItemData@@SA?AVQString@@PBD0@Z @ 69 NONAME ; class QString CpSettingFormItemData::trUtf8(char const *, char const *)
	?qt_metacall@CpBaseSettingView@@UAEHW4Call@QMetaObject@@HPAPAX@Z @ 70 NONAME ; int CpBaseSettingView::qt_metacall(enum QMetaObject::Call, int, void * *)
	?trUtf8@CpBaseSettingView@@SA?AVQString@@PBD0H@Z @ 71 NONAME ; class QString CpBaseSettingView::trUtf8(char const *, char const *, int)
	?getStaticMetaObject@CpSettingFormEntryItemData@@SAABUQMetaObject@@XZ @ 72 NONAME ; struct QMetaObject const & CpSettingFormEntryItemData::getStaticMetaObject(void)
	??0CpCategorySettingFormItemData@@QAE@ABVQString@@PBVHbDataFormModelItem@@@Z @ 73 NONAME ; CpCategorySettingFormItemData::CpCategorySettingFormItemData(class QString const &, class HbDataFormModelItem const *)
	??0CpSettingFormEntryItemData@@QAE@AAVCpItemDataHelper@@ABVQString@@1ABVHbIcon@@PBVHbDataFormModelItem@@@Z @ 74 NONAME ; CpSettingFormEntryItemData::CpSettingFormEntryItemData(class CpItemDataHelper &, class QString const &, class QString const &, class HbIcon const &, class HbDataFormModelItem const *)
	?setText@CpSettingFormEntryItemData@@QAEXABVQString@@@Z @ 75 NONAME ; void CpSettingFormEntryItemData::setText(class QString const &)
	?prototypeAdded@CpItemDataHelper@@IAEXPAVHbAbstractViewItem@@@Z @ 76 NONAME ; void CpItemDataHelper::prototypeAdded(class HbAbstractViewItem *)
	?qt_metacast@CpCategorySettingFormItemData@@UAEPAXPBD@Z @ 77 NONAME ; void * CpCategorySettingFormItemData::qt_metacast(char const *)
	?trUtf8@CpSettingFormEntryItemData@@SA?AVQString@@PBD0@Z @ 78 NONAME ; class QString CpSettingFormEntryItemData::trUtf8(char const *, char const *)
	?tr@CpItemDataHelper@@SA?AVQString@@PBD0@Z @ 79 NONAME ; class QString CpItemDataHelper::tr(char const *, char const *)
	?getStaticMetaObject@CpItemDataHelper@@SAABUQMetaObject@@XZ @ 80 NONAME ; struct QMetaObject const & CpItemDataHelper::getStaticMetaObject(void)
	?metaObject@CpItemDataHelper@@UBEPBUQMetaObject@@XZ @ 81 NONAME ; struct QMetaObject const * CpItemDataHelper::metaObject(void) const
	?qt_metacall@CpCategorySettingFormItemData@@UAEHW4Call@QMetaObject@@HPAPAX@Z @ 82 NONAME ; int CpCategorySettingFormItemData::qt_metacall(enum QMetaObject::Call, int, void * *)
	?qt_metacast@CpCategorySettingFormModel@@UAEPAXPBD@Z @ 83 NONAME ; void * CpCategorySettingFormModel::qt_metacast(char const *)
	?qt_metacast@CpSettingFormEntryItemData@@UAEPAXPBD@Z @ 84 NONAME ; void * CpSettingFormEntryItemData::qt_metacast(char const *)
	??_ECpItemDataHelper@@UAE@I@Z @ 85 NONAME ; CpItemDataHelper::~CpItemDataHelper(unsigned int)
	??1CpSettingFormEntryItemData@@UAE@XZ @ 86 NONAME ; CpSettingFormEntryItemData::~CpSettingFormEntryItemData(void)
	?qt_metacall@CpItemDataHelper@@UAEHW4Call@QMetaObject@@HPAPAX@Z @ 87 NONAME ; int CpItemDataHelper::qt_metacall(enum QMetaObject::Call, int, void * *)
	?getStaticMetaObject@CpCategorySettingFormItemData@@SAABUQMetaObject@@XZ @ 88 NONAME ; struct QMetaObject const & CpCategorySettingFormItemData::getStaticMetaObject(void)
	?metaObject@CpSettingFormEntryItemData@@UBEPBUQMetaObject@@XZ @ 89 NONAME ; struct QMetaObject const * CpSettingFormEntryItemData::metaObject(void) const
	?addItemPrototype@CpItemDataHelper@@QAEXPAVHbAbstractViewItem@@@Z @ 90 NONAME ; void CpItemDataHelper::addItemPrototype(class HbAbstractViewItem *)
	?staticMetaObject@CpSettingFormItemData@@2UQMetaObject@@B @ 91 NONAME ; struct QMetaObject const CpSettingFormItemData::staticMetaObject
	?trUtf8@CpBaseSettingView@@SA?AVQString@@PBD0@Z @ 92 NONAME ; class QString CpBaseSettingView::trUtf8(char const *, char const *)
	?addConnection@CpItemDataHelper@@QAEXPAVHbDataFormModelItem@@ABVQString@@PAVQObject@@1@Z @ 93 NONAME ; void CpItemDataHelper::addConnection(class HbDataFormModelItem *, class QString const &, class QObject *, class QString const &)
	?setEntryItemIcon@CpSettingFormEntryItemData@@QAEXABVHbIcon@@@Z @ 94 NONAME ; void CpSettingFormEntryItemData::setEntryItemIcon(class HbIcon const &)
	?trUtf8@CpCategorySettingFormItemData@@SA?AVQString@@PBD0H@Z @ 95 NONAME ; class QString CpCategorySettingFormItemData::trUtf8(char const *, char const *, int)
	?tr@CpCategorySettingFormModel@@SA?AVQString@@PBD0H@Z @ 96 NONAME ; class QString CpCategorySettingFormModel::tr(char const *, char const *, int)
	?entryItemIcon@CpSettingFormEntryItemData@@QBE?AVHbIcon@@XZ @ 97 NONAME ; class HbIcon CpSettingFormEntryItemData::entryItemIcon(void) const
	??1CpBaseSettingView@@UAE@XZ @ 98 NONAME ; CpBaseSettingView::~CpBaseSettingView(void)
	??_ECpCategorySettingFormItemData@@UAE@I@Z @ 99 NONAME ; CpCategorySettingFormItemData::~CpCategorySettingFormItemData(unsigned int)
	?metaObject@CpSettingFormItemData@@UBEPBUQMetaObject@@XZ @ 100 NONAME ; struct QMetaObject const * CpSettingFormItemData::metaObject(void) const
	?qt_metacall@CpSettingFormEntryItemData@@UAEHW4Call@QMetaObject@@HPAPAX@Z @ 101 NONAME ; int CpSettingFormEntryItemData::qt_metacall(enum QMetaObject::Call, int, void * *)

