EXPORTS
	_ZN15CGSListboxEntry15SetDynamicTextLERK7TDesC16 @ 1 NONAME
	_ZN15CGSListboxEntry5NewLCER15TResourceReader @ 2 NONAME
	_ZN15CGSListboxEntry5NewLCEi @ 3 NONAME
	_ZN15CGSListboxEntryD0Ev @ 4 NONAME
	_ZN15CGSListboxEntryD1Ev @ 5 NONAME
	_ZN15CGSListboxEntryD2Ev @ 6 NONAME
	_ZN16CGSItemTextArray15SetDynamicTextLEiRK7TDesC16 @ 7 NONAME
	_ZN16CGSItemTextArray18SetItemVisibilityLEiNS_11TVisibilityE @ 8 NONAME
	_ZN16CGSItemTextArray29GetItemCaptionFromFeatureIdLCEmiR7CCoeEnv @ 9 NONAME
	_ZN16CGSItemTextArray4NewLEmR7CCoeEnv @ 10 NONAME
	_ZN23CGSListBoxItemTextArray4NewLEmR11CEikListBoxR7CCoeEnv @ 11 NONAME
	_ZN38CGSRadioButtonSettingPageItemTextArray25SetRadioButtonSettingPageER26CAknRadioButtonSettingPage @ 12 NONAME
	_ZN38CGSRadioButtonSettingPageItemTextArray4NewLEmR7CCoeEnvP26CAknRadioButtonSettingPage @ 13 NONAME
	_ZNK15CGSListboxEntry4TypeEv @ 14 NONAME
	_ZNK15CGSListboxEntry7CaptionEv @ 15 NONAME
	_ZNK15CGSListboxEntry9FeatureIdEv @ 16 NONAME
	_ZNK16CGSItemTextArray12FeatureByIdLEi @ 17 NONAME
	_ZNK16CGSItemTextArray14CurrentFeatureEv @ 18 NONAME
	_ZNK16CGSItemTextArray16FeatureIdByIndexEi @ 19 NONAME
	_ZNK16CGSItemTextArray18IndexForFeatureIdLEi @ 20 NONAME
	_ZNK16CGSItemTextArray9MdcaCountEv @ 21 NONAME
	_ZNK16CGSItemTextArray9MdcaPointEi @ 22 NONAME
	_ZNK23CGSListBoxItemTextArray14CurrentFeatureEv @ 23 NONAME
	_ZNK38CGSRadioButtonSettingPageItemTextArray14CurrentFeatureEv @ 24 NONAME
	_ZTI15CGSListboxEntry @ 25 NONAME ; #<TI>#
	_ZTI16CGSItemTextArray @ 26 NONAME ; #<TI>#
	_ZTI23CGSListBoxItemTextArray @ 27 NONAME ; #<TI>#
	_ZTI38CGSRadioButtonSettingPageItemTextArray @ 28 NONAME ; #<TI>#
	_ZTV15CGSListboxEntry @ 29 NONAME ; #<VT>#
	_ZTV16CGSItemTextArray @ 30 NONAME ; #<VT>#
	_ZTV23CGSListBoxItemTextArray @ 31 NONAME ; #<VT>#
	_ZTV38CGSRadioButtonSettingPageItemTextArray @ 32 NONAME ; #<VT>#
	_ZThn4_NK16CGSItemTextArray9MdcaCountEv @ 33 NONAME ; #<thunk>#
	_ZThn4_NK16CGSItemTextArray9MdcaPointEi @ 34 NONAME ; #<thunk>#
	_ZN15CGSListboxEntry5NewLCEmR7CCoeEnvi @ 35 NONAME
	_ZN23CGSListBoxItemTextArray4NewLEmR11CEikListBoxR7CCoeEnvi @ 36 NONAME
	_ZN15CGSListboxEntry25SetDynamicTextDoublePaneLERK7TDesC16 @ 37 NONAME
	_ZN16CGSItemTextArray25SetDynamicTextDoublePaneLEiRK7TDesC16 @ 38 NONAME

